/*
 * Intel ACPI Component Architecture
 * AML/ASL+ Disassembler version 20211217 (64-bit version)
 * Copyright (c) 2000 - 2021 Intel Corporation
 * 
 * Disassembly of lpit.dat, Sun Feb 27 17:24:13 2022
 *
 * ACPI Data Table [LPIT]
 *
 * Format: [HexOffset DecimalOffset ByteLength]  FieldName : FieldValue (in hex)
 */

[000h 0000   4]                    Signature : "LPIT"    [Low Power Idle Table]
[004h 0004   4]                 Table Length : 00000094
[008h 0008   1]                     Revision : 01
[009h 0009   1]                     Checksum : 7D
[00Ah 0010   6]                       Oem ID : "LENOVO"
[010h 0016   8]                 Oem Table ID : "TP-N1O  "
[018h 0024   4]                 Oem Revision : 00001430
[01Ch 0028   4]              Asl Compiler ID : "PTEC"
[020h 0032   4]        Asl Compiler Revision : 00000002

[024h 0036   4]                Subtable Type : 00000000 [Native C-state Idle Structure]
[028h 0040   4]                       Length : 00000038
[02Ch 0044   2]                    Unique ID : 0000
[02Eh 0046   2]                     Reserved : 0000
[030h 0048   4]        Flags (decoded below) : 00000000
                              State Disabled : 0
                                  No Counter : 0

[034h 0052  12]                Entry Trigger : [Generic Address Structure]
[034h 0052   1]                     Space ID : 7F [FunctionalFixedHW]
[035h 0053   1]                    Bit Width : 01
[036h 0054   1]                   Bit Offset : 02
[037h 0055   1]         Encoded Access Width : 00 [Undefined/Legacy]
[038h 0056   8]                      Address : 0000000000000060

[040h 0064   4]                    Residency : 00007530
[044h 0068   4]                      Latency : 00000BB8
[048h 0072  12]            Residency Counter : [Generic Address Structure]
[048h 0072   1]                     Space ID : 7F [FunctionalFixedHW]
[049h 0073   1]                    Bit Width : 40
[04Ah 0074   1]                   Bit Offset : 00
[04Bh 0075   1]         Encoded Access Width : 00 [Undefined/Legacy]
[04Ch 0076   8]                      Address : 0000000000000632

[054h 0084   8]            Counter Frequency : 0000000000000000

[05Ch 0092   4]                Subtable Type : 00000000 [Native C-state Idle Structure]
[060h 0096   4]                       Length : 00000038
[064h 0100   2]                    Unique ID : 0001
[066h 0102   2]                     Reserved : 0000
[068h 0104   4]        Flags (decoded below) : 00000000
                              State Disabled : 0
                                  No Counter : 0

[06Ch 0108  12]                Entry Trigger : [Generic Address Structure]
[06Ch 0108   1]                     Space ID : 7F [FunctionalFixedHW]
[06Dh 0109   1]                    Bit Width : 01
[06Eh 0110   1]                   Bit Offset : 02
[06Fh 0111   1]         Encoded Access Width : 00 [Undefined/Legacy]
[070h 0112   8]                      Address : 0000000000000060

[078h 0120   4]                    Residency : 00007530
[07Ch 0124   4]                      Latency : 00000BB8
[080h 0128  12]            Residency Counter : [Generic Address Structure]
[080h 0128   1]                     Space ID : 00 [SystemMemory]
[081h 0129   1]                    Bit Width : 20
[082h 0130   1]                   Bit Offset : 00
[083h 0131   1]         Encoded Access Width : 03 [DWord Access:32]
[084h 0132   8]                      Address : 00000000FE00013C

[08Ch 0140   8]            Counter Frequency : 0000000000002710


Raw Table Data: Length 148 (0x94)

    0000: 4C 50 49 54 94 00 00 00 01 7D 4C 45 4E 4F 56 4F  // LPIT.....}LENOVO
    0010: 54 50 2D 4E 31 4F 20 20 30 14 00 00 50 54 45 43  // TP-N1O  0...PTEC
    0020: 02 00 00 00 00 00 00 00 38 00 00 00 00 00 00 00  // ........8.......
    0030: 00 00 00 00 7F 01 02 00 60 00 00 00 00 00 00 00  // ........`.......
    0040: 30 75 00 00 B8 0B 00 00 7F 40 00 00 32 06 00 00  // 0u.......@..2...
    0050: 00 00 00 00 00 00 00 00 00 00 00 00 00 00 00 00  // ................
    0060: 38 00 00 00 01 00 00 00 00 00 00 00 7F 01 02 00  // 8...............
    0070: 60 00 00 00 00 00 00 00 30 75 00 00 B8 0B 00 00  // `.......0u......
    0080: 00 20 00 03 3C 01 00 FE 00 00 00 00 10 27 00 00  // . ..<........'..
    0090: 00 00 00 00                                      // ....
